; Function Attrs: mustprogress nofree norecurse nosync nounwind willreturn memory(argmem: write) uwtable
define hidden void @_ZN4llvh3sys4path3endENS_9StringRefE(ptr noalias nocapture writeonly sret(%"class.llvh::sys::path::const_iterator") align 8 %agg.result, ptr %path.coerce0, i64 %path.coerce1) local_unnamed_addr #2 {
entry:
  %0 = getelementptr inbounds i8, ptr %agg.result, i64 16
  tail call void @llvm.memset.p0.i64(ptr noundef nonnull align 8 dereferenceable(32) %0, i8 0, i64 16, i1 false)
  store ptr %path.coerce0, ptr %agg.result, align 8
  %path.sroa.2.0.Path.sroa_idx = getelementptr inbounds i8, ptr %agg.result, i64 8
  store i64 %path.coerce1, ptr %path.sroa.2.0.Path.sroa_idx, align 8
  %Position = getelementptr inbounds i8, ptr %agg.result, i64 32
  store i64 %path.coerce1, ptr %Position, align 8
  ret void
}